target datalayout = "e-m:e-p270:32:32-p271:32:32-p272:64:64-i64:64-i128:128-f80:128-n8:16:32:64-S128"
target triple = "x86_64-pc-linux-gnu"

%struct.mi_segment_s = type { %struct.mi_memid_s, i8, i8, i64, ptr, ptr, ptr, i8, i8, i64, i64, i64, i64, i64, i64, ptr, ptr, i64, i64, i32, [1 x %struct.mi_page_s] }
%struct.mi_memid_s = type { %union.anon, i8, i8, i8, i32 }
%union.anon = type { %struct.mi_memid_os_info }
%struct.mi_memid_os_info = type { ptr, i64 }
%struct.mi_page_s = type { i8, i8, i16, i16, %union.mi_page_flags_s, i8, ptr, ptr, i16, i8, i8, i64, ptr, i64, i64, ptr, ptr }
%union.mi_page_flags_s = type { i8 }
%struct.mi_arena_s = type { i32, %struct.mi_memid_s, ptr, i64, i64, i64, %struct.mi_memid_s, i32, i8, i8, %union.pthread_mutex_t, i64, i64, ptr, ptr, ptr, ptr, [1 x i64] }
%union.pthread_mutex_t = type { %struct.__pthread_mutex_s }
%struct.__pthread_mutex_s = type { i32, i32, i32, i32, i32, i16, i16, %struct.__pthread_internal_list }
%struct.__pthread_internal_list = type { ptr, ptr }
%struct.mi_subproc_s = type { i64, i64, %union.pthread_mutex_t, %union.pthread_mutex_t, ptr, ptr, %struct.mi_memid_s }
%struct.mi_memid_arena_info = type { i64, i32, i8 }

@mi_arenas = internal global [132 x ptr] zeroinitializer, align 64

; Function Attrs: nounwind uwtable
define hidden i64 @mi_arena_id_index(i32 noundef %0) #0 {
  %2 = alloca i32, align 4
  store i32 %0, ptr %2, align 4, !tbaa !52
  %3 = load i32, ptr %2, align 4, !tbaa !52
  %4 = icmp sle i32 %3, 0
  br i1 %4, label %5, label %6

5:                                                ; preds = %1
  br label %9

6:                                                ; preds = %1
  %7 = load i32, ptr %2, align 4, !tbaa !52
  %8 = sub nsw i32 %7, 1
  br label %9

9:                                                ; preds = %6, %5
  %10 = phi i32 [ 132, %5 ], [ %8, %6 ]
  %11 = sext i32 %10 to i64
  ret i64 %11
}

; Function Attrs: nounwind uwtable
define hidden ptr @mi_arena_from_index(i64 noundef %0) #0 {
  %2 = alloca i64, align 8
  %3 = alloca ptr, align 8
  store i64 %0, ptr %2, align 8, !tbaa !15
  %4 = load i64, ptr %2, align 8, !tbaa !15
  %5 = getelementptr inbounds nuw [132 x ptr], ptr @mi_arenas, i64 0, i64 %4
  %6 = load atomic i64, ptr %5 acquire, align 8
  store i64 %6, ptr %3, align 8
  %7 = load ptr, ptr %3, align 8, !tbaa !16
  ret ptr %7
}

; Function Attrs: nounwind uwtable
define hidden zeroext i1 @mi_arena_memid_indices(ptr noundef byval(%struct.mi_memid_s) align 8 %0, ptr noundef %1, ptr noundef %2) #0 {
  %4 = alloca ptr, align 8
  %5 = alloca ptr, align 8
  store ptr %1, ptr %4, align 8, !tbaa !31
  store ptr %2, ptr %5, align 8, !tbaa !31
  %6 = getelementptr inbounds nuw %struct.mi_memid_s, ptr %0, i32 0, i32 0
  %7 = getelementptr inbounds nuw %struct.mi_memid_arena_info, ptr %6, i32 0, i32 1
  %8 = load i32, ptr %7, align 8, !tbaa !33
  %9 = call i64 @mi_arena_id_index(i32 noundef %8) #12
  %10 = load ptr, ptr %4, align 8, !tbaa !31
  store i64 %9, ptr %10, align 8, !tbaa !15
  %11 = getelementptr inbounds nuw %struct.mi_memid_s, ptr %0, i32 0, i32 0
  %12 = getelementptr inbounds nuw %struct.mi_memid_arena_info, ptr %11, i32 0, i32 0
  %13 = load i64, ptr %12, align 8, !tbaa !33
  %14 = load ptr, ptr %5, align 8, !tbaa !31
  store i64 %13, ptr %14, align 8, !tbaa !15
  %15 = getelementptr inbounds nuw %struct.mi_memid_s, ptr %0, i32 0, i32 0
  %16 = getelementptr inbounds nuw %struct.mi_memid_arena_info, ptr %15, i32 0, i32 2
  %17 = load i8, ptr %16, align 4, !tbaa !33, !range !22, !noundef !23
  %18 = trunc i8 %17 to i1
  ret i1 %18
}

; Function Attrs: nounwind uwtable
define hidden zeroext i1 @_mi_arena_segment_clear_abandoned(ptr noundef %0) #0 {
  %2 = alloca i1, align 1
  %3 = alloca ptr, align 8
  %4 = alloca i64, align 8
  %5 = alloca i64, align 8
  %6 = alloca ptr, align 8
  %7 = alloca i8, align 1
  %8 = alloca i64, align 8
  %9 = alloca i64, align 8
  %10 = alloca i64, align 8
  store ptr %0, ptr %3, align 8, !tbaa !3
  %11 = load ptr, ptr %3, align 8, !tbaa !3
  %12 = getelementptr inbounds nuw %struct.mi_segment_s, ptr %11, i32 0, i32 0
  %13 = getelementptr inbounds nuw %struct.mi_memid_s, ptr %12, i32 0, i32 4
  %14 = load i32, ptr %13, align 4, !tbaa !8
  %15 = icmp ne i32 %14, 6
  %16 = xor i1 %15, true
  %17 = xor i1 %16, true
  %18 = zext i1 %17 to i32
  %19 = sext i32 %18 to i64
  %20 = call i64 @llvm.expect.i64(i64 %19, i64 0)
  %21 = icmp ne i64 %20, 0
  br i1 %21, label %22, label %25

22:                                               ; preds = %1
  %23 = load ptr, ptr %3, align 8, !tbaa !3
  %24 = call zeroext i1 @mi_arena_segment_os_clear_abandoned(ptr noundef %23, i1 noundef zeroext true) #12
  store i1 %24, ptr %2, align 1
  br label %56

25:                                               ; preds = %1
  call void @llvm.lifetime.start.p0(i64 8, ptr %4) #13
  call void @llvm.lifetime.start.p0(i64 8, ptr %5) #13
  %26 = load ptr, ptr %3, align 8, !tbaa !3
  %27 = getelementptr inbounds nuw %struct.mi_segment_s, ptr %26, i32 0, i32 0
  %28 = call zeroext i1 @mi_arena_memid_indices(ptr noundef byval(%struct.mi_memid_s) align 8 %27, ptr noundef %4, ptr noundef %5) #12
  call void @llvm.lifetime.start.p0(i64 8, ptr %6) #13
  %29 = load i64, ptr %4, align 8, !tbaa !15
  %30 = call ptr @mi_arena_from_index(i64 noundef %29) #12
  store ptr %30, ptr %6, align 8, !tbaa !16
  call void @llvm.lifetime.start.p0(i64 1, ptr %7) #13
  %31 = load ptr, ptr %6, align 8, !tbaa !16
  %32 = getelementptr inbounds nuw %struct.mi_arena_s, ptr %31, i32 0, i32 16
  %33 = load ptr, ptr %32, align 8, !tbaa !18
  %34 = load ptr, ptr %6, align 8, !tbaa !16
  %35 = getelementptr inbounds nuw %struct.mi_arena_s, ptr %34, i32 0, i32 4
  %36 = load i64, ptr %35, align 8, !tbaa !20
  %37 = load i64, ptr %5, align 8, !tbaa !15
  %38 = call zeroext i1 @_mi_bitmap_unclaim(ptr noundef %33, i64 noundef %36, i64 noundef 1, i64 noundef %37) #12
  %39 = zext i1 %38 to i8
  store i8 %39, ptr %7, align 1, !tbaa !21
  %40 = load i8, ptr %7, align 1, !tbaa !21, !range !22, !noundef !23
  %41 = trunc i8 %40 to i1
  br i1 %41, label %42, label %53

42:                                               ; preds = %25
  %43 = load ptr, ptr %3, align 8, !tbaa !3
  %44 = getelementptr inbounds nuw %struct.mi_segment_s, ptr %43, i32 0, i32 4
  %45 = load ptr, ptr %44, align 8, !tbaa !24
  %46 = getelementptr inbounds nuw %struct.mi_subproc_s, ptr %45, i32 0, i32 0
  store i64 1, ptr %8, align 8, !tbaa !15
  %47 = load i64, ptr %8, align 8
  %48 = atomicrmw sub ptr %46, i64 %47 monotonic, align 8
  store i64 %48, ptr %9, align 8
  %49 = load ptr, ptr %3, align 8, !tbaa !3
  %50 = getelementptr inbounds nuw %struct.mi_segment_s, ptr %49, i32 0, i32 17
  %51 = call i64 @_mi_thread_id() #12
  store i64 %51, ptr %10, align 8, !tbaa !15
  %52 = load i64, ptr %10, align 8
  store atomic i64 %52, ptr %50 release, align 8
  br label %53

53:                                               ; preds = %42, %25
  %54 = load i8, ptr %7, align 1, !tbaa !21, !range !22, !noundef !23
  %55 = trunc i8 %54 to i1
  store i1 %55, ptr %2, align 1
  call void @llvm.lifetime.end.p0(i64 1, ptr %7) #13
  call void @llvm.lifetime.end.p0(i64 8, ptr %6) #13
  call void @llvm.lifetime.end.p0(i64 8, ptr %5) #13
  call void @llvm.lifetime.end.p0(i64 8, ptr %4) #13
  br label %56

56:                                               ; preds = %53, %22
  %57 = load i1, ptr %2, align 1
  ret i1 %57
}