; Function Attrs: nounwind uwtable
define hidden noundef zeroext i1 @_mi_arena_segment_clear_abandoned(ptr noundef captures(address) %0) local_unnamed_addr #0 {
  %2 = getelementptr inbounds nuw i8, ptr %0, i64 20
  %3 = load i32, ptr %2, align 4, !tbaa !3
  %.not = icmp eq i32 %3, 6
  br i1 %.not, label %6, label %4, !prof !14

4:                                                ; preds = %1
  %5 = tail call fastcc zeroext i1 @mi_arena_segment_os_clear_abandoned(ptr noundef nonnull %0, i1 noundef zeroext true) #19
  br label %25

6:                                                ; preds = %1
  %.sroa.0.0.copyload = load i64, ptr %0, align 1
  %.sroa.4.0..sroa_idx = getelementptr inbounds nuw i8, ptr %0, i64 8
  %.sroa.4.0.copyload = load i32, ptr %.sroa.4.0..sroa_idx, align 1
  %7 = icmp slt i32 %.sroa.4.0.copyload, 1
  %8 = add nsw i32 %.sroa.4.0.copyload, -1
  %9 = select i1 %7, i32 132, i32 %8
  %10 = zext nneg i32 %9 to i64
  %11 = getelementptr inbounds nuw [132 x ptr], ptr @mi_arenas, i64 0, i64 %10
  %12 = load atomic i64, ptr %11 acquire, align 8
  %13 = inttoptr i64 %12 to ptr
  %14 = getelementptr inbounds nuw i8, ptr %13, i64 176
  %15 = load ptr, ptr %14, align 8, !tbaa !15
  %16 = getelementptr inbounds nuw i8, ptr %13, i64 48
  %17 = load i64, ptr %16, align 8, !tbaa !17
  %18 = tail call zeroext i1 @_mi_bitmap_unclaim(ptr noundef %15, i64 noundef %17, i64 noundef 1, i64 noundef %.sroa.0.0.copyload) #20
  br i1 %18, label %19, label %25

19:                                               ; preds = %6
  %20 = getelementptr inbounds nuw i8, ptr %0, i64 40
  %21 = load ptr, ptr %20, align 8, !tbaa !18
  %22 = atomicrmw sub ptr %21, i64 1 monotonic, align 8
  %23 = getelementptr inbounds nuw i8, ptr %0, i64 136
  %24 = tail call i64 @_mi_thread_id() #20
  store atomic i64 %24, ptr %23 release, align 8
  br label %25

25:                                               ; preds = %6, %19, %4
  %.0 = phi i1 [ %5, %4 ], [ true, %19 ], [ false, %6 ]
  ret i1 %.0
}